; ModuleID = '45/565.c'
source_filename = "45/565.c"
target datalayout = "e-m:e-p270:32:32-p271:32:32-p272:64:64-i64:64-f80:128-n8:16:32:64-S128"
target triple = "x86_64-pc-linux-gnu"

@.str = private unnamed_addr constant [6 x i8] c"%s %s\00", align 1
@.str.1 = private unnamed_addr constant [3 x i8] c"%d\00", align 1

; Function Attrs: noinline nounwind uwtable
define dso_local void @main() #0 {
  %1 = alloca i32, align 4
  %2 = alloca i32, align 4
  %3 = alloca i32, align 4
  %4 = alloca i32, align 4
  %5 = alloca i32, align 4
  %6 = alloca i32*, align 8
  %7 = alloca [60 x i8], align 16
  %8 = alloca [60 x i8], align 16
  %9 = alloca i8*, align 8
  %10 = alloca i8*, align 8
  %11 = getelementptr inbounds [60 x i8], [60 x i8]* %7, i64 0, i64 0
  %12 = getelementptr inbounds [60 x i8], [60 x i8]* %8, i64 0, i64 0
  %13 = call i32 (i8*, ...) @__isoc99_scanf(i8* getelementptr inbounds ([6 x i8], [6 x i8]* @.str, i64 0, i64 0), i8* %11, i8* %12)
  %14 = getelementptr inbounds [60 x i8], [60 x i8]* %7, i64 0, i64 0
  store i8* %14, i8** %9, align 8
  %15 = getelementptr inbounds [60 x i8], [60 x i8]* %8, i64 0, i64 0
  store i8* %15, i8** %10, align 8
  %16 = load i8*, i8** %10, align 8
  %17 = load i8*, i8** %9, align 8
  %18 = call i8* @strstr(i8* %16, i8* %17) #3
  %19 = bitcast i8* %18 to i32*
  store i32* %19, i32** %6, align 8
  %20 = load i8*, i8** %10, align 8
  %21 = ptrtoint i8* %20 to i32
  store i32 %21, i32* %4, align 4
  %22 = load i32*, i32** %6, align 8
  %23 = ptrtoint i32* %22 to i32
  store i32 %23, i32* %5, align 4
  %24 = load i32, i32* %5, align 4
  %25 = load i32, i32* %4, align 4
  %26 = sub nsw i32 %24, %25
  %27 = call i32 (i8*, ...) @printf(i8* getelementptr inbounds ([3 x i8], [3 x i8]* @.str.1, i64 0, i64 0), i32 %26)
  ret void
}

declare dso_local i32 @__isoc99_scanf(i8*, ...) #1

; Function Attrs: nounwind readonly
declare dso_local i8* @strstr(i8*, i8*) #2

declare dso_local i32 @printf(i8*, ...) #1


!llvm.module.flags = !{!0}
!llvm.ident = !{!1}

!0 = !{i32 1, !"wchar_size", i32 4}
!1 = !{!"clang version 10.0.0-4ubuntu1 "}
